; ModuleID = '47/4736.c'
source_filename = "47/4736.c"
target datalayout = "e-m:e-p270:32:32-p271:32:32-p272:64:64-i64:64-f80:128-n8:16:32:64-S128"
target triple = "x86_64-pc-linux-gnu"

@.str = private unnamed_addr constant [3 x i8] c"%d\00", align 1
@.str.1 = private unnamed_addr constant [2 x i8] c" \00", align 1

; Function Attrs: noinline nounwind uwtable
define dso_local void @main() #0 {
  %1 = alloca i32, align 4
  %2 = alloca i32, align 4
  %3 = alloca i32, align 4
  %4 = alloca [100 x i32], align 16
  %5 = alloca i32*, align 8
  %6 = getelementptr inbounds [100 x i32], [100 x i32]* %4, i64 0, i64 0
  store i32* %6, i32** %5, align 8
  %7 = call i32 (i8*, ...) @__isoc99_scanf(i8* getelementptr inbounds ([3 x i8], [3 x i8]* @.str, i64 0, i64 0), i32* %1)
  store i32 0, i32* %2, align 4
  br label %8

8:                                                ; preds = %15, %0
  %9 = load i32, i32* %2, align 4
  %10 = load i32, i32* %1, align 4
  %11 = icmp slt i32 %9, %10
  br i1 %11, label %12, label %20

12:                                               ; preds = %8
  %13 = load i32*, i32** %5, align 8
  %14 = call i32 (i8*, ...) @__isoc99_scanf(i8* getelementptr inbounds ([3 x i8], [3 x i8]* @.str, i64 0, i64 0), i32* %13)
  br label %15

15:                                               ; preds = %12
  %16 = load i32, i32* %2, align 4
  %17 = add nsw i32 %16, 1
  store i32 %17, i32* %2, align 4
  %18 = load i32*, i32** %5, align 8
  %19 = getelementptr inbounds i32, i32* %18, i32 1
  store i32* %19, i32** %5, align 8
  br label %8

20:                                               ; preds = %8
  %21 = getelementptr inbounds [100 x i32], [100 x i32]* %4, i64 0, i64 0
  store i32* %21, i32** %5, align 8
  store i32 0, i32* %2, align 4
  br label %22

22:                                               ; preds = %57, %20
  %23 = load i32, i32* %2, align 4
  %24 = load i32, i32* %1, align 4
  %25 = sdiv i32 %24, 2
  %26 = icmp slt i32 %23, %25
  br i1 %26, label %27, label %60

27:                                               ; preds = %22
  %28 = load i32*, i32** %5, align 8
  %29 = load i32, i32* %1, align 4
  %30 = sext i32 %29 to i64
  %31 = getelementptr inbounds i32, i32* %28, i64 %30
  %32 = getelementptr inbounds i32, i32* %31, i64 -1
  %33 = load i32, i32* %2, align 4
  %34 = sext i32 %33 to i64
  %35 = sub i64 0, %34
  %36 = getelementptr inbounds i32, i32* %32, i64 %35
  %37 = load i32, i32* %36, align 4
  store i32 %37, i32* %3, align 4
  %38 = load i32*, i32** %5, align 8
  %39 = load i32, i32* %2, align 4
  %40 = sext i32 %39 to i64
  %41 = getelementptr inbounds i32, i32* %38, i64 %40
  %42 = load i32, i32* %41, align 4
  %43 = load i32*, i32** %5, align 8
  %44 = load i32, i32* %1, align 4
  %45 = sext i32 %44 to i64
  %46 = getelementptr inbounds i32, i32* %43, i64 %45
  %47 = getelementptr inbounds i32, i32* %46, i64 -1
  %48 = load i32, i32* %2, align 4
  %49 = sext i32 %48 to i64
  %50 = sub i64 0, %49
  %51 = getelementptr inbounds i32, i32* %47, i64 %50
  store i32 %42, i32* %51, align 4
  %52 = load i32, i32* %3, align 4
  %53 = load i32*, i32** %5, align 8
  %54 = load i32, i32* %2, align 4
  %55 = sext i32 %54 to i64
  %56 = getelementptr inbounds i32, i32* %53, i64 %55
  store i32 %52, i32* %56, align 4
  br label %57

57:                                               ; preds = %27
  %58 = load i32, i32* %2, align 4
  %59 = add nsw i32 %58, 1
  store i32 %59, i32* %2, align 4
  br label %22

60:                                               ; preds = %22
  %61 = getelementptr inbounds [100 x i32], [100 x i32]* %4, i64 0, i64 0
  store i32* %61, i32** %5, align 8
  br label %62

62:                                               ; preds = %83, %60
  %63 = load i32*, i32** %5, align 8
  %64 = getelementptr inbounds [100 x i32], [100 x i32]* %4, i64 0, i64 0
  %65 = load i32, i32* %1, align 4
  %66 = sext i32 %65 to i64
  %67 = getelementptr inbounds i32, i32* %64, i64 %66
  %68 = icmp ult i32* %63, %67
  br i1 %68, label %69, label %86

69:                                               ; preds = %62
  %70 = load i32*, i32** %5, align 8
  %71 = load i32, i32* %70, align 4
  %72 = call i32 (i8*, ...) @printf(i8* getelementptr inbounds ([3 x i8], [3 x i8]* @.str, i64 0, i64 0), i32 %71)
  %73 = load i32*, i32** %5, align 8
  %74 = getelementptr inbounds [100 x i32], [100 x i32]* %4, i64 0, i64 0
  %75 = load i32, i32* %1, align 4
  %76 = sext i32 %75 to i64
  %77 = getelementptr inbounds i32, i32* %74, i64 %76
  %78 = getelementptr inbounds i32, i32* %77, i64 -1
  %79 = icmp ne i32* %73, %78
  br i1 %79, label %80, label %82

80:                                               ; preds = %69
  %81 = call i32 (i8*, ...) @printf(i8* getelementptr inbounds ([2 x i8], [2 x i8]* @.str.1, i64 0, i64 0))
  br label %82

82:                                               ; preds = %80, %69
  br label %83

83:                                               ; preds = %82
  %84 = load i32*, i32** %5, align 8
  %85 = getelementptr inbounds i32, i32* %84, i32 1
  store i32* %85, i32** %5, align 8
  br label %62

86:                                               ; preds = %62
  ret void
}

declare dso_local i32 @__isoc99_scanf(i8*, ...) #1

declare dso_local i32 @printf(i8*, ...) #1


!llvm.module.flags = !{!0}
!llvm.ident = !{!1}

!0 = !{i32 1, !"wchar_size", i32 4}
!1 = !{!"clang version 10.0.0-4ubuntu1 "}
